target datalayout = "e-m:e-p270:32:32-p271:32:32-p272:64:64-i64:64-i128:128-f80:128-n8:16:32:64-S128"
target triple = "x86_64-pc-linux-gnu"

%"class.google::protobuf::internal::InternalMetadata" = type { i64 }
%"class.google::protobuf::internal::HasBits" = type { [1 x i32] }
%"class.google::protobuf::Message" = type { %"class.google::protobuf::MessageLite" }
%"class.google::protobuf::MessageLite" = type { ptr, %"class.google::protobuf::internal::InternalMetadata" }
%"struct.std::atomic" = type { %"struct.std::__atomic_base" }
%"struct.std::__atomic_base" = type { i32 }
%"class.google::protobuf::internal::CachedSize" = type { %"struct.std::atomic" }
%"class.google::protobuf::internal::LogMessage" = type { i32, ptr, i32, %"class.std::__cxx11::basic_string" }
%"class.std::__cxx11::basic_string" = type { %"struct.std::__cxx11::basic_string<char>::_Alloc_hider", i64, %union.anon.88 }
%"struct.std::__cxx11::basic_string<char>::_Alloc_hider" = type { ptr }
%union.anon.88 = type { i64, [8 x i8] }
%"class.google::protobuf::internal::LogFinisher" = type { i8 }
%"struct.google::protobuf::internal::InternalMetadata::Container" = type { %"struct.google::protobuf::internal::InternalMetadata::ContainerBase", %"class.google::protobuf::UnknownFieldSet" }
%"struct.google::protobuf::internal::InternalMetadata::ContainerBase" = type { ptr }
%"class.google::protobuf::UnknownFieldSet" = type { %"class.std::vector" }
%"class.std::vector" = type { %"struct.std::_Vector_base" }
%"struct.std::_Vector_base" = type { %"struct.std::_Vector_base<google::protobuf::UnknownField, std::allocator<google::protobuf::UnknownField>>::_Vector_impl" }
%"struct.std::_Vector_base<google::protobuf::UnknownField, std::allocator<google::protobuf::UnknownField>>::_Vector_impl" = type { %"struct.std::_Vector_base<google::protobuf::UnknownField, std::allocator<google::protobuf::UnknownField>>::_Vector_impl_data" }
%"struct.std::_Vector_base<google::protobuf::UnknownField, std::allocator<google::protobuf::UnknownField>>::_Vector_impl_data" = type { ptr, ptr, ptr }
%"class.opencv_caffe::AccuracyParameter" = type <{ %"class.google::protobuf::Message", %"class.google::protobuf::internal::HasBits", %"class.google::protobuf::internal::CachedSize", i32, i32, i32, [4 x i8] }>

@.str.2 = private unnamed_addr constant [133 x i8] c"generated/home/dtcxzyw/WorkSpace/Projects/compilers/llvm-opt-benchmark/bench/opencv/opencv/modules/dnn/misc/caffe/opencv-caffe.pb.cc\00", align 1
@.str.3 = private unnamed_addr constant [34 x i8] c"CHECK failed: (&from) != (this): \00", align 1

; Function Attrs: mustprogress nounwind uwtable
define linkonce_odr hidden noundef ptr @_ZNK6google8protobuf8internal16InternalMetadata8PtrValueINS2_9ContainerINS0_15UnknownFieldSetEEEEEPT_v(ptr noundef nonnull align 8 dereferenceable(8) %0) #5 comdat align 2 {
  %2 = alloca ptr, align 8
  store ptr %0, ptr %2, align 8, !tbaa !32
  %3 = load ptr, ptr %2, align 8
  %4 = getelementptr inbounds nuw %"class.google::protobuf::internal::InternalMetadata", ptr %3, i32 0, i32 0
  %5 = load i64, ptr %4, align 8, !tbaa !1438
  %6 = and i64 %5, -4
  %7 = inttoptr i64 %6 to ptr
  ret ptr %7
}

; Function Attrs: alwaysinline mustprogress nounwind uwtable
define linkonce_odr hidden noundef zeroext i1 @_ZNK6google8protobuf8internal16InternalMetadata19HasUnknownFieldsTagEv(ptr noundef nonnull align 8 dereferenceable(8) %0) #13 comdat align 2 {
  %2 = alloca ptr, align 8
  store ptr %0, ptr %2, align 8, !tbaa !32
  %3 = load ptr, ptr %2, align 8
  %4 = getelementptr inbounds nuw %"class.google::protobuf::internal::InternalMetadata", ptr %3, i32 0, i32 0
  %5 = load i64, ptr %4, align 8, !tbaa !1438
  %6 = and i64 %5, 1
  %7 = icmp ne i64 %6, 0
  ret i1 %7
}

; Function Attrs: alwaysinline mustprogress uwtable
define linkonce_odr hidden noundef nonnull align 8 dereferenceable(24) ptr @_ZNK6google8protobuf8internal16InternalMetadata14unknown_fieldsINS0_15UnknownFieldSetEEERKT_PFS7_vE(ptr noundef nonnull align 8 dereferenceable(8) %0, ptr noundef %1) #8 comdat align 2 {
  %3 = alloca ptr, align 8
  %4 = alloca ptr, align 8
  %5 = alloca ptr, align 8
  store ptr %0, ptr %4, align 8, !tbaa !32
  store ptr %1, ptr %5, align 8, !tbaa !36
  %6 = load ptr, ptr %4, align 8
  %7 = call noundef zeroext i1 @_ZNK6google8protobuf8internal16InternalMetadata19have_unknown_fieldsEv(ptr noundef nonnull align 8 dereferenceable(8) %6)
  %8 = zext i1 %7 to i64
  %9 = call i64 @llvm.expect.i64(i64 %8, i64 0)
  %10 = icmp ne i64 %9, 0
  br i1 %10, label %11, label %14

11:                                               ; preds = %2
  %12 = call noundef ptr @_ZNK6google8protobuf8internal16InternalMetadata8PtrValueINS2_9ContainerINS0_15UnknownFieldSetEEEEEPT_v(ptr noundef nonnull align 8 dereferenceable(8) %6)
  %13 = getelementptr inbounds nuw %"struct.google::protobuf::internal::InternalMetadata::Container", ptr %12, i32 0, i32 1
  store ptr %13, ptr %3, align 8
  br label %17

14:                                               ; preds = %2
  %15 = load ptr, ptr %5, align 8, !tbaa !36
  %16 = call noundef nonnull align 8 dereferenceable(24) ptr %15()
  store ptr %16, ptr %3, align 8
  br label %17

17:                                               ; preds = %14, %11
  %18 = load ptr, ptr %3, align 8
  ret ptr %18
}

; Function Attrs: alwaysinline mustprogress uwtable
define linkonce_odr hidden noundef zeroext i1 @_ZNK6google8protobuf8internal16InternalMetadata19have_unknown_fieldsEv(ptr noundef nonnull align 8 dereferenceable(8) %0) #8 comdat align 2 {
  %2 = alloca ptr, align 8
  store ptr %0, ptr %2, align 8, !tbaa !32
  %3 = load ptr, ptr %2, align 8
  %4 = call noundef zeroext i1 @_ZNK6google8protobuf8internal16InternalMetadata19HasUnknownFieldsTagEv(ptr noundef nonnull align 8 dereferenceable(8) %3)
  ret i1 %4
}

; Function Attrs: alwaysinline mustprogress uwtable
define linkonce_odr hidden void @_ZN6google8protobuf8internal16InternalMetadata9MergeFromINS0_15UnknownFieldSetEEEvRKS2_(ptr noundef nonnull align 8 dereferenceable(8) %0, ptr noundef nonnull align 8 dereferenceable(8) %1) #8 comdat align 2 {
  %3 = alloca ptr, align 8
  %4 = alloca ptr, align 8
  store ptr %0, ptr %3, align 8, !tbaa !32
  store ptr %1, ptr %4, align 8, !tbaa !32
  %5 = load ptr, ptr %3, align 8
  %6 = load ptr, ptr %4, align 8, !tbaa !32
  %7 = call noundef zeroext i1 @_ZNK6google8protobuf8internal16InternalMetadata19have_unknown_fieldsEv(ptr noundef nonnull align 8 dereferenceable(8) %6)
  br i1 %7, label %8, label %11

8:                                                ; preds = %2
  %9 = load ptr, ptr %4, align 8, !tbaa !32
  %10 = call noundef nonnull align 8 dereferenceable(24) ptr @_ZNK6google8protobuf8internal16InternalMetadata14unknown_fieldsINS0_15UnknownFieldSetEEERKT_PFS7_vE(ptr noundef nonnull align 8 dereferenceable(8) %9, ptr noundef null)
  call void @_ZN6google8protobuf8internal16InternalMetadata11DoMergeFromINS0_15UnknownFieldSetEEEvRKT_(ptr noundef nonnull align 8 dereferenceable(8) %5, ptr noundef nonnull align 8 dereferenceable(24) %10)
  br label %11

11:                                               ; preds = %8, %2
  ret void
}

; Function Attrs: alwaysinline mustprogress nounwind uwtable
define linkonce_odr hidden noundef nonnull align 4 dereferenceable(4) ptr @_ZN6google8protobuf8internal7HasBitsILm1EEixEi(ptr noundef nonnull align 4 dereferenceable(4) %0, i32 noundef %1) #13 comdat align 2 {
  %3 = alloca ptr, align 8
  %4 = alloca i32, align 4
  store ptr %0, ptr %3, align 8, !tbaa !87
  store i32 %1, ptr %4, align 4, !tbaa !8
  %5 = load ptr, ptr %3, align 8
  %6 = getelementptr inbounds nuw %"class.google::protobuf::internal::HasBits", ptr %5, i32 0, i32 0
  %7 = load i32, ptr %4, align 4, !tbaa !8
  %8 = sext i32 %7 to i64
  %9 = getelementptr inbounds [1 x i32], ptr %6, i64 0, i64 %8
  ret ptr %9
}

; Function Attrs: alwaysinline mustprogress nounwind uwtable
define linkonce_odr hidden noundef nonnull align 4 dereferenceable(4) ptr @_ZNK6google8protobuf8internal7HasBitsILm1EEixEi(ptr noundef nonnull align 4 dereferenceable(4) %0, i32 noundef %1) #13 comdat align 2 {
  %3 = alloca ptr, align 8
  %4 = alloca i32, align 4
  store ptr %0, ptr %3, align 8, !tbaa !87
  store i32 %1, ptr %4, align 4, !tbaa !8
  %5 = load ptr, ptr %3, align 8
  %6 = getelementptr inbounds nuw %"class.google::protobuf::internal::HasBits", ptr %5, i32 0, i32 0
  %7 = load i32, ptr %4, align 4, !tbaa !8
  %8 = sext i32 %7 to i64
  %9 = getelementptr inbounds [1 x i32], ptr %6, i64 0, i64 %8
  ret ptr %9
}

; Function Attrs: mustprogress uwtable
define hidden void @_ZN12opencv_caffe17AccuracyParameter9MergeFromERKS0_(ptr noundef nonnull align 8 dereferenceable(40) %0, ptr noundef nonnull align 8 dereferenceable(40) %1) #4 align 2 personality ptr @__gxx_personality_v0 {
  %3 = alloca ptr, align 8
  %4 = alloca ptr, align 8
  %5 = alloca %"class.google::protobuf::internal::LogMessage", align 8
  %6 = alloca i1, align 1
  %7 = alloca i1, align 1
  %8 = alloca ptr, align 8
  %9 = alloca i32, align 4
  %10 = alloca %"class.google::protobuf::internal::LogFinisher", align 1
  %11 = alloca i32, align 4
  store ptr %0, ptr %3, align 8, !tbaa !699
  store ptr %1, ptr %4, align 8, !tbaa !699
  %12 = load ptr, ptr %3, align 8
  br label %13

13:                                               ; preds = %28, %2
  br i1 false, label %14, label %44

14:                                               ; preds = %13
  %15 = load ptr, ptr %4, align 8, !tbaa !699
  %16 = icmp ne ptr %15, %12
  store i1 false, ptr %6, align 1
  store i1 false, ptr %7, align 1
  call void @llvm.lifetime.start.p0(i64 1, ptr %10) #3
  br i1 %16, label %17, label %18

17:                                               ; preds = %14
  br label %22

18:                                               ; preds = %14
  call void @llvm.lifetime.start.p0(i64 56, ptr %5) #3
  store i1 true, ptr %6, align 1
  call void @_ZN6google8protobuf8internal10LogMessageC1ENS0_8LogLevelEPKci(ptr noundef nonnull align 8 dereferenceable(56) %5, i32 noundef 3, ptr noundef @.str.2, i32 noundef 14860)
  store i1 true, ptr %7, align 1
  %19 = invoke noundef nonnull align 8 dereferenceable(56) ptr @_ZN6google8protobuf8internal10LogMessagelsEPKc(ptr noundef nonnull align 8 dereferenceable(56) %5, ptr noundef @.str.3)
          to label %20 unwind label %29

20:                                               ; preds = %18
  invoke void @_ZN6google8protobuf8internal11LogFinisheraSERNS1_10LogMessageE(ptr noundef nonnull align 1 dereferenceable(1) %10, ptr noundef nonnull align 8 dereferenceable(56) %19)
          to label %21 unwind label %33

21:                                               ; preds = %20
  br label %22

22:                                               ; preds = %21, %17
  call void @llvm.lifetime.end.p0(i64 1, ptr %10) #3
  %23 = load i1, ptr %7, align 1
  br i1 %23, label %24, label %25

24:                                               ; preds = %22
  call void @_ZN6google8protobuf8internal10LogMessageD1Ev(ptr noundef nonnull align 8 dereferenceable(56) %5) #3
  br label %25

25:                                               ; preds = %24, %22
  %26 = load i1, ptr %6, align 1
  br i1 %26, label %27, label %28

27:                                               ; preds = %25
  call void @llvm.lifetime.end.p0(i64 56, ptr %5) #3
  br label %28

28:                                               ; preds = %27, %25
  br label %13, !llvm.loop !933

29:                                               ; preds = %18
  %30 = landingpad { ptr, i32 }
          cleanup
  %31 = extractvalue { ptr, i32 } %30, 0
  store ptr %31, ptr %8, align 8
  %32 = extractvalue { ptr, i32 } %30, 1
  store i32 %32, ptr %9, align 4
  br label %37

33:                                               ; preds = %20
  %34 = landingpad { ptr, i32 }
          cleanup
  %35 = extractvalue { ptr, i32 } %34, 0
  store ptr %35, ptr %8, align 8
  %36 = extractvalue { ptr, i32 } %34, 1
  store i32 %36, ptr %9, align 4
  call void @llvm.lifetime.end.p0(i64 1, ptr %10) #3
  br label %37

37:                                               ; preds = %33, %29
  %38 = load i1, ptr %7, align 1
  br i1 %38, label %39, label %40

39:                                               ; preds = %37
  call void @_ZN6google8protobuf8internal10LogMessageD1Ev(ptr noundef nonnull align 8 dereferenceable(56) %5) #3
  br label %40

40:                                               ; preds = %39, %37
  %41 = load i1, ptr %6, align 1
  br i1 %41, label %42, label %43

42:                                               ; preds = %40
  call void @llvm.lifetime.end.p0(i64 56, ptr %5) #3
  br label %43

43:                                               ; preds = %42, %40
  br label %89

44:                                               ; preds = %13
  call void @llvm.lifetime.start.p0(i64 4, ptr %11) #3
  store i32 0, ptr %11, align 4, !tbaa !8
  %45 = load ptr, ptr %4, align 8, !tbaa !699
  %46 = getelementptr inbounds nuw %"class.opencv_caffe::AccuracyParameter", ptr %45, i32 0, i32 1
  %47 = call noundef nonnull align 4 dereferenceable(4) ptr @_ZNK6google8protobuf8internal7HasBitsILm1EEixEi(ptr noundef nonnull align 4 dereferenceable(4) %46, i32 noundef 0)
  %48 = load i32, ptr %47, align 4, !tbaa !8
  store i32 %48, ptr %11, align 4, !tbaa !8
  %49 = load i32, ptr %11, align 4, !tbaa !8
  %50 = and i32 %49, 7
  %51 = icmp ne i32 %50, 0
  br i1 %51, label %52, label %85

52:                                               ; preds = %44
  %53 = load i32, ptr %11, align 4, !tbaa !8
  %54 = and i32 %53, 1
  %55 = icmp ne i32 %54, 0
  br i1 %55, label %56, label %61

56:                                               ; preds = %52
  %57 = load ptr, ptr %4, align 8, !tbaa !699
  %58 = getelementptr inbounds nuw %"class.opencv_caffe::AccuracyParameter", ptr %57, i32 0, i32 3
  %59 = load i32, ptr %58, align 8, !tbaa !700
  %60 = getelementptr inbounds nuw %"class.opencv_caffe::AccuracyParameter", ptr %12, i32 0, i32 3
  store i32 %59, ptr %60, align 8, !tbaa !700
  br label %61

61:                                               ; preds = %56, %52
  %62 = load i32, ptr %11, align 4, !tbaa !8
  %63 = and i32 %62, 2
  %64 = icmp ne i32 %63, 0
  br i1 %64, label %65, label %70

65:                                               ; preds = %61
  %66 = load ptr, ptr %4, align 8, !tbaa !699
  %67 = getelementptr inbounds nuw %"class.opencv_caffe::AccuracyParameter", ptr %66, i32 0, i32 4
  %68 = load i32, ptr %67, align 4, !tbaa !702
  %69 = getelementptr inbounds nuw %"class.opencv_caffe::AccuracyParameter", ptr %12, i32 0, i32 4
  store i32 %68, ptr %69, align 4, !tbaa !702
  br label %70

70:                                               ; preds = %65, %61
  %71 = load i32, ptr %11, align 4, !tbaa !8
  %72 = and i32 %71, 4
  %73 = icmp ne i32 %72, 0
  br i1 %73, label %74, label %79

74:                                               ; preds = %70
  %75 = load ptr, ptr %4, align 8, !tbaa !699
  %76 = getelementptr inbounds nuw %"class.opencv_caffe::AccuracyParameter", ptr %75, i32 0, i32 5
  %77 = load i32, ptr %76, align 8, !tbaa !703
  %78 = getelementptr inbounds nuw %"class.opencv_caffe::AccuracyParameter", ptr %12, i32 0, i32 5
  store i32 %77, ptr %78, align 8, !tbaa !703
  br label %79

79:                                               ; preds = %74, %70
  %80 = load i32, ptr %11, align 4, !tbaa !8
  %81 = getelementptr inbounds nuw %"class.opencv_caffe::AccuracyParameter", ptr %12, i32 0, i32 1
  %82 = call noundef nonnull align 4 dereferenceable(4) ptr @_ZN6google8protobuf8internal7HasBitsILm1EEixEi(ptr noundef nonnull align 4 dereferenceable(4) %81, i32 noundef 0)
  %83 = load i32, ptr %82, align 4, !tbaa !8
  %84 = or i32 %83, %80
  store i32 %84, ptr %82, align 4, !tbaa !8
  br label %85

85:                                               ; preds = %79, %44
  %86 = getelementptr inbounds nuw %"class.google::protobuf::MessageLite", ptr %12, i32 0, i32 1
  %87 = load ptr, ptr %4, align 8, !tbaa !699
  %88 = getelementptr inbounds nuw %"class.google::protobuf::MessageLite", ptr %87, i32 0, i32 1
  call void @_ZN6google8protobuf8internal16InternalMetadata9MergeFromINS0_15UnknownFieldSetEEEvRKS2_(ptr noundef nonnull align 8 dereferenceable(8) %86, ptr noundef nonnull align 8 dereferenceable(8) %88)
  call void @llvm.lifetime.end.p0(i64 4, ptr %11) #3
  ret void

89:                                               ; preds = %43
  %90 = load ptr, ptr %8, align 8
  %91 = load i32, ptr %9, align 4
  %92 = insertvalue { ptr, i32 } poison, ptr %90, 0
  %93 = insertvalue { ptr, i32 } %92, i32 %91, 1
  resume { ptr, i32 } %93
}